target datalayout = "e-m:e-p270:32:32-p271:32:32-p272:64:64-i64:64-i128:128-f80:128-n8:16:32:64-S128"
target triple = "x86_64-unknown-linux-gnu"

%"class.std::__cxx11::basic_string" = type { %"struct.std::__cxx11::basic_string<char>::_Alloc_hider", i64, %union.anon }
%"struct.std::__cxx11::basic_string<char>::_Alloc_hider" = type { ptr }
%union.anon = type { i64, [8 x i8] }
%class.vector = type { ptr }
%class.vector.0 = type { ptr }

; Function Attrs: mustprogress nounwind uwtable
define linkonce_odr hidden noundef nonnull align 8 dereferenceable(32) ptr @_ZN6vectorINSt7__cxx1112basic_stringIcSt11char_traitsIcESaIcEEELb1EjEixEj(ptr noundef nonnull align 8 dereferenceable(8) %this, i32 noundef %idx) #5 comdat align 2 {
entry:
  %this.addr = alloca ptr, align 8
  %idx.addr = alloca i32, align 4
  store ptr %this, ptr %this.addr, align 8
  store i32 %idx, ptr %idx.addr, align 4
  %this1 = load ptr, ptr %this.addr, align 8
  %m_data = getelementptr inbounds %class.vector.0, ptr %this1, i32 0, i32 0
  %0 = load ptr, ptr %m_data, align 8
  %1 = load i32, ptr %idx.addr, align 4
  %idxprom = zext i32 %1 to i64
  %arrayidx = getelementptr inbounds %"class.std::__cxx11::basic_string", ptr %0, i64 %idxprom
  ret ptr %arrayidx
}

; Function Attrs: mustprogress nounwind uwtable
define linkonce_odr hidden noundef nonnull align 8 dereferenceable(8) ptr @_ZN6vectorIS_INSt7__cxx1112basic_stringIcSt11char_traitsIcESaIcEEELb1EjELb1EjEixEj(ptr noundef nonnull align 8 dereferenceable(8) %this, i32 noundef %idx) #5 comdat align 2 {
entry:
  %this.addr = alloca ptr, align 8
  %idx.addr = alloca i32, align 4
  store ptr %this, ptr %this.addr, align 8
  store i32 %idx, ptr %idx.addr, align 4
  %this1 = load ptr, ptr %this.addr, align 8
  %m_data = getelementptr inbounds %class.vector, ptr %this1, i32 0, i32 0
  %0 = load ptr, ptr %m_data, align 8
  %1 = load i32, ptr %idx.addr, align 4
  %idxprom = zext i32 %1 to i64
  %arrayidx = getelementptr inbounds %class.vector.0, ptr %0, i64 %idxprom
  ret ptr %arrayidx
}

; Function Attrs: mustprogress nounwind uwtable
define linkonce_odr hidden noundef i32 @_ZNK6vectorIS_INSt7__cxx1112basic_stringIcSt11char_traitsIcESaIcEEELb1EjELb1EjE4sizeEv(ptr noundef nonnull align 8 dereferenceable(8) %this) #5 comdat align 2 {
entry:
  %retval = alloca i32, align 4
  %this.addr = alloca ptr, align 8
  store ptr %this, ptr %this.addr, align 8
  %this1 = load ptr, ptr %this.addr, align 8
  %m_data = getelementptr inbounds %class.vector, ptr %this1, i32 0, i32 0
  %0 = load ptr, ptr %m_data, align 8
  %cmp = icmp eq ptr %0, null
  br i1 %cmp, label %if.then, label %if.end

if.then:                                          ; preds = %entry
  store i32 0, ptr %retval, align 4
  br label %return

if.end:                                           ; preds = %entry
  %m_data2 = getelementptr inbounds %class.vector, ptr %this1, i32 0, i32 0
  %1 = load ptr, ptr %m_data2, align 8
  %arrayidx = getelementptr inbounds i32, ptr %1, i64 -1
  %2 = load i32, ptr %arrayidx, align 4
  store i32 %2, ptr %retval, align 4
  br label %return

return:                                           ; preds = %if.end, %if.then
  %3 = load i32, ptr %retval, align 4
  ret i32 %3
}

; Function Attrs: mustprogress uwtable
define hidden noundef i32 @_ZN2lp19get_width_of_columnEjR6vectorIS0_INSt7__cxx1112basic_stringIcSt11char_traitsIcESaIcEEELb1EjELb1EjE(i32 noundef %j, ptr noundef nonnull align 8 dereferenceable(8) %A) #4 {
entry:
  %j.addr = alloca i32, align 4
  %A.addr = alloca ptr, align 8
  %r = alloca i32, align 4
  %i = alloca i32, align 4
  %t = alloca ptr, align 8
  %str = alloca %"class.std::__cxx11::basic_string", align 8
  %s = alloca i32, align 4
  store i32 %j, ptr %j.addr, align 4
  store ptr %A, ptr %A.addr, align 8
  store i32 0, ptr %r, align 4
  store i32 0, ptr %i, align 4
  br label %for.cond

for.cond:                                         ; preds = %for.inc, %entry
  %0 = load i32, ptr %i, align 4
  %1 = load ptr, ptr %A.addr, align 8
  %call = call noundef i32 @_ZNK6vectorIS_INSt7__cxx1112basic_stringIcSt11char_traitsIcESaIcEEELb1EjELb1EjE4sizeEv(ptr noundef nonnull align 8 dereferenceable(8) %1)
  %cmp = icmp ult i32 %0, %call
  br i1 %cmp, label %for.body, label %for.end

for.body:                                         ; preds = %for.cond
  %2 = load ptr, ptr %A.addr, align 8
  %3 = load i32, ptr %i, align 4
  %call1 = call noundef nonnull align 8 dereferenceable(8) ptr @_ZN6vectorIS_INSt7__cxx1112basic_stringIcSt11char_traitsIcESaIcEEELb1EjELb1EjEixEj(ptr noundef nonnull align 8 dereferenceable(8) %2, i32 noundef %3)
  store ptr %call1, ptr %t, align 8
  %4 = load ptr, ptr %t, align 8
  %5 = load i32, ptr %j.addr, align 4
  %call2 = call noundef nonnull align 8 dereferenceable(32) ptr @_ZN6vectorINSt7__cxx1112basic_stringIcSt11char_traitsIcESaIcEEELb1EjEixEj(ptr noundef nonnull align 8 dereferenceable(8) %4, i32 noundef %5)
  call void @_ZNSt7__cxx1112basic_stringIcSt11char_traitsIcESaIcEEC1ERKS4_(ptr noundef nonnull align 8 dereferenceable(32) %str, ptr noundef nonnull align 8 dereferenceable(32) %call2)
  %call3 = call noundef i64 @_ZNKSt7__cxx1112basic_stringIcSt11char_traitsIcESaIcEE4sizeEv(ptr noundef nonnull align 8 dereferenceable(32) %str) #3
  %conv = trunc i64 %call3 to i32
  store i32 %conv, ptr %s, align 4
  %6 = load i32, ptr %r, align 4
  %7 = load i32, ptr %s, align 4
  %cmp4 = icmp ult i32 %6, %7
  br i1 %cmp4, label %if.then, label %if.end

if.then:                                          ; preds = %for.body
  %8 = load i32, ptr %s, align 4
  store i32 %8, ptr %r, align 4
  br label %if.end

if.end:                                           ; preds = %if.then, %for.body
  call void @_ZNSt7__cxx1112basic_stringIcSt11char_traitsIcESaIcEED1Ev(ptr noundef nonnull align 8 dereferenceable(32) %str) #3
  br label %for.inc

for.inc:                                          ; preds = %if.end
  %9 = load i32, ptr %i, align 4
  %inc = add i32 %9, 1
  store i32 %inc, ptr %i, align 4
  br label %for.cond, !llvm.loop !4

for.end:                                          ; preds = %for.cond
  %10 = load i32, ptr %r, align 4
  ret i32 %10
}