; Function Attrs: mustprogress uwtable
define hidden noundef i32 @_ZN2lp19get_width_of_columnEjR6vectorIS0_INSt7__cxx1112basic_stringIcSt11char_traitsIcESaIcEEELb1EjELb1EjE(i32 noundef %j, ptr nocapture noundef nonnull readonly align 8 dereferenceable(8) %A) local_unnamed_addr #3 {
entry:
  %str = alloca %"class.std::__cxx11::basic_string", align 8
  %idxprom.i7 = zext i32 %j to i64
  br label %for.cond

for.cond:                                         ; preds = %for.body, %entry
  %indvars.iv = phi i64 [ %indvars.iv.next, %for.body ], [ 0, %entry ]
  %r.0 = phi i32 [ %spec.select, %for.body ], [ 0, %entry ]
  %0 = load ptr, ptr %A, align 8
  %cmp.i = icmp eq ptr %0, null
  br i1 %cmp.i, label %_ZNK6vectorIS_INSt7__cxx1112basic_stringIcSt11char_traitsIcESaIcEEELb1EjELb1EjE4sizeEv.exit, label %if.end.i

if.end.i:                                         ; preds = %for.cond
  %arrayidx.i = getelementptr inbounds i8, ptr %0, i64 -4
  %1 = load i32, ptr %arrayidx.i, align 4
  br label %_ZNK6vectorIS_INSt7__cxx1112basic_stringIcSt11char_traitsIcESaIcEEELb1EjELb1EjE4sizeEv.exit

_ZNK6vectorIS_INSt7__cxx1112basic_stringIcSt11char_traitsIcESaIcEEELb1EjELb1EjE4sizeEv.exit: ; preds = %for.cond, %if.end.i
  %retval.0.i = phi i32 [ %1, %if.end.i ], [ 0, %for.cond ]
  %2 = zext i32 %retval.0.i to i64
  %cmp = icmp ult i64 %indvars.iv, %2
  br i1 %cmp, label %for.body, label %for.end

for.body:                                         ; preds = %_ZNK6vectorIS_INSt7__cxx1112basic_stringIcSt11char_traitsIcESaIcEEELb1EjELb1EjE4sizeEv.exit
  %arrayidx.i6 = getelementptr inbounds %class.vector.0, ptr %0, i64 %indvars.iv
  %3 = load ptr, ptr %arrayidx.i6, align 8
  %arrayidx.i8 = getelementptr inbounds %"class.std::__cxx11::basic_string", ptr %3, i64 %idxprom.i7
  call void @_ZNSt7__cxx1112basic_stringIcSt11char_traitsIcESaIcEEC1ERKS4_(ptr noundef nonnull align 8 dereferenceable(32) %str, ptr noundef nonnull align 8 dereferenceable(32) %arrayidx.i8)
  %call3 = call noundef i64 @_ZNKSt7__cxx1112basic_stringIcSt11char_traitsIcESaIcEE4sizeEv(ptr noundef nonnull align 8 dereferenceable(32) %str) #12
  %conv = trunc i64 %call3 to i32
  %spec.select = call i32 @llvm.umax.i32(i32 %r.0, i32 %conv)
  call void @_ZNSt7__cxx1112basic_stringIcSt11char_traitsIcESaIcEED1Ev(ptr noundef nonnull align 8 dereferenceable(32) %str) #12
  %indvars.iv.next = add nuw nsw i64 %indvars.iv, 1
  br label %for.cond, !llvm.loop !4

for.end:                                          ; preds = %_ZNK6vectorIS_INSt7__cxx1112basic_stringIcSt11char_traitsIcESaIcEEELb1EjELb1EjE4sizeEv.exit
  ret i32 %r.0
}